; Function Attrs: nounwind uwtable
define dso_local noundef ptr @make_orclause(ptr noundef %0) local_unnamed_addr #0 {
  %2 = tail call noundef ptr @palloc0(i64 noundef 24) #7
  store i32 21, ptr %2, align 4
  %3 = getelementptr inbounds nuw i8, ptr %2, i64 4
  store i32 1, ptr %3, align 4
  %4 = getelementptr inbounds nuw i8, ptr %2, i64 8
  store ptr %0, ptr %4, align 8
  %5 = getelementptr inbounds nuw i8, ptr %2, i64 16
  store i32 -1, ptr %5, align 8
  ret ptr %2
}